target datalayout = "e-m:e-p270:32:32-p271:32:32-p272:64:64-i64:64-i128:128-f80:128-n8:16:32:64-S128"
target triple = "x86_64-pc-linux-gnu"

%"struct.opt::model_based_opt::def" = type { i32, i32 }

; Function Attrs: mustprogress uwtable
define linkonce_odr hidden void @_Z7deallocIN3opt15model_based_opt3defEEvPT_(ptr noundef %0) #4 comdat {
  %2 = alloca ptr, align 8
  store ptr %0, ptr %2, align 8, !tbaa !35
  %3 = load ptr, ptr %2, align 8, !tbaa !35
  %4 = icmp eq ptr %3, null
  br i1 %4, label %5, label %6

5:                                                ; preds = %1
  br label %8

6:                                                ; preds = %1
  %7 = load ptr, ptr %2, align 8, !tbaa !35
  call void @_ZN6memory10deallocateEPv(ptr noundef %7)
  br label %8

8:                                                ; preds = %6, %5
  ret void
}

; Function Attrs: mustprogress uwtable
define hidden void @_ZN3opt15model_based_opt3def7dec_refEv(ptr noundef nonnull align 4 dereferenceable(8) %0) #4 align 2 {
  %2 = alloca ptr, align 8
  store ptr %0, ptr %2, align 8, !tbaa !35
  %3 = load ptr, ptr %2, align 8
  %4 = getelementptr inbounds nuw %"struct.opt::model_based_opt::def", ptr %3, i32 0, i32 1
  %5 = load i32, ptr %4, align 4, !tbaa !49
  %6 = add i32 %5, 1
  store i32 %6, ptr %4, align 4, !tbaa !49
  %7 = getelementptr inbounds nuw %"struct.opt::model_based_opt::def", ptr %3, i32 0, i32 1
  %8 = load i32, ptr %7, align 4, !tbaa !49
  %9 = icmp eq i32 %8, 0
  br i1 %9, label %10, label %11

10:                                               ; preds = %1
  call void @_Z7deallocIN3opt15model_based_opt3defEEvPT_(ptr noundef %3)
  br label %11

11:                                               ; preds = %10, %1
  ret void
}