; Function Attrs: mustprogress uwtable
define hidden void @_ZN3opt15model_based_opt3def7dec_refEv(ptr noundef nonnull align 4 dereferenceable(8) %0) local_unnamed_addr #3 align 2 {
  %2 = getelementptr inbounds nuw i8, ptr %0, i64 4
  %3 = load i32, ptr %2, align 4, !tbaa !38
  %4 = add i32 %3, 1
  store i32 %4, ptr %2, align 4, !tbaa !38
  %5 = icmp eq i32 %4, 0
  br i1 %5, label %6, label %7

6:                                                ; preds = %1
  tail call void @_ZN6memory10deallocateEPv(ptr noundef nonnull %0)
  br label %7

7:                                                ; preds = %6, %1
  ret void
}